target datalayout = "e-m:e-p270:32:32-p271:32:32-p272:64:64-i64:64-i128:128-f80:128-n8:16:32:64-S128"
target triple = "x86_64-pc-linux-gnu"

%struct.XXH32_state_s = type { i32, i32, [4 x i32], [4 x i32], i32, i32 }

; Function Attrs: mustprogress nounwind uwtable
define i32 @ROCKSDB_XXH32_reset(ptr noundef %0, i32 noundef %1) #4 {
  %3 = alloca ptr, align 8
  %4 = alloca i32, align 4
  store ptr %0, ptr %3, align 8, !tbaa !18
  store i32 %1, ptr %4, align 4, !tbaa !10
  %5 = load ptr, ptr %3, align 8, !tbaa !18
  %6 = icmp ne ptr %5, null
  br i1 %6, label %8, label %7

7:                                                ; preds = %2
  unreachable

8:                                                ; preds = %2
  %9 = load ptr, ptr %3, align 8, !tbaa !18
  call void @llvm.memset.p0.i64(ptr align 4 %9, i8 0, i64 48, i1 false)
  %10 = load i32, ptr %4, align 4, !tbaa !10
  %11 = add i32 %10, -1640531535
  %12 = add i32 %11, -2048144777
  %13 = load ptr, ptr %3, align 8, !tbaa !18
  %14 = getelementptr inbounds nuw %struct.XXH32_state_s, ptr %13, i32 0, i32 2
  %15 = getelementptr inbounds [4 x i32], ptr %14, i64 0, i64 0
  store i32 %12, ptr %15, align 4, !tbaa !10
  %16 = load i32, ptr %4, align 4, !tbaa !10
  %17 = add i32 %16, -2048144777
  %18 = load ptr, ptr %3, align 8, !tbaa !18
  %19 = getelementptr inbounds nuw %struct.XXH32_state_s, ptr %18, i32 0, i32 2
  %20 = getelementptr inbounds [4 x i32], ptr %19, i64 0, i64 1
  store i32 %17, ptr %20, align 4, !tbaa !10
  %21 = load i32, ptr %4, align 4, !tbaa !10
  %22 = add i32 %21, 0
  %23 = load ptr, ptr %3, align 8, !tbaa !18
  %24 = getelementptr inbounds nuw %struct.XXH32_state_s, ptr %23, i32 0, i32 2
  %25 = getelementptr inbounds [4 x i32], ptr %24, i64 0, i64 2
  store i32 %22, ptr %25, align 4, !tbaa !10
  %26 = load i32, ptr %4, align 4, !tbaa !10
  %27 = sub i32 %26, -1640531535
  %28 = load ptr, ptr %3, align 8, !tbaa !18
  %29 = getelementptr inbounds nuw %struct.XXH32_state_s, ptr %28, i32 0, i32 2
  %30 = getelementptr inbounds [4 x i32], ptr %29, i64 0, i64 3
  store i32 %27, ptr %30, align 4, !tbaa !10
  ret i32 0
}