; Function Attrs: mustprogress nofree norecurse nosync nounwind willreturn memory(argmem: write, inaccessiblemem: write) uwtable
define noundef i32 @ROCKSDB_XXH32_reset(ptr noundef writeonly %0, i32 noundef %1) local_unnamed_addr #5 {
  %3 = icmp ne ptr %0, null
  tail call void @llvm.assume(i1 %3)
  tail call void @llvm.memset.p0.i64(ptr noundef nonnull align 4 dereferenceable(48) %0, i8 0, i64 48, i1 false)
  %4 = add i32 %1, 606290984
  %5 = getelementptr inbounds nuw i8, ptr %0, i64 8
  store i32 %4, ptr %5, align 4, !tbaa !4
  %6 = add i32 %1, -2048144777
  %7 = getelementptr inbounds nuw i8, ptr %0, i64 12
  store i32 %6, ptr %7, align 4, !tbaa !4
  %8 = getelementptr inbounds nuw i8, ptr %0, i64 16
  store i32 %1, ptr %8, align 4, !tbaa !4
  %9 = add i32 %1, 1640531535
  %10 = getelementptr inbounds nuw i8, ptr %0, i64 20
  store i32 %9, ptr %10, align 4, !tbaa !4
  ret i32 0
}